; Function Attrs: nounwind uwtable
define dso_local void @list_config_color_interactive_slots(ptr noundef %0, ptr noundef %1) local_unnamed_addr #0 {
  br label %4

3:                                                ; preds = %10
  ret void

4:                                                ; preds = %2, %10
  %.06 = phi i64 [ 0, %2 ], [ %11, %10 ]
  %5 = getelementptr inbounds nuw [6 x ptr], ptr @color_interactive_slots, i64 0, i64 %.06
  %6 = load ptr, ptr %5, align 8, !tbaa !4
  %.not = icmp eq ptr %6, null
  br i1 %.not, label %10, label %7

7:                                                ; preds = %4
  %8 = tail call ptr (ptr, ...) @xstrfmt(ptr noundef nonnull @.str.27, ptr noundef %1, ptr noundef nonnull %6) #16
  %9 = tail call ptr @string_list_append_nodup(ptr noundef %0, ptr noundef %8) #16
  br label %10

10:                                               ; preds = %4, %7
  %11 = add nuw nsw i64 %.06, 1
  %exitcond.not = icmp eq i64 %11, 6
  br i1 %exitcond.not, label %3, label %4, !llvm.loop !9
}